(dp0
Vengine
p1
S'pdflatex'
p2
sVpackages
p3
c__builtin__
set
p4
((lp5
Vauthblk
p6
aVcourier
p7
aVamsmath
p8
aVlistings
p9
aVgeometry
p10
aVgraphicx
p11
aVcite
p12
aVcolor
p13
atp14
Rp15
sVfiles_with_guttermarks
p16
g4
((lp17
S'problem-statement.tex'
p18
atp19
Rp20
sVsynctex
p21
I01
s.